target datalayout = "e-m:e-p270:32:32-p271:32:32-p272:64:64-i64:64-i128:128-f80:128-n8:16:32:64-S128"
target triple = "x86_64-pc-linux-gnu"

@.str = private unnamed_addr constant [21 x i8] c"Jsonnet reformatter \00", align 1
@.str.1 = private unnamed_addr constant [2 x i8] c"\0A\00", align 1
@.str.2 = private unnamed_addr constant [38 x i8] c"jsonnetfmt {<option>} { <filename> }\0A\00", align 1
@.str.3 = private unnamed_addr constant [20 x i8] c"Available options:\0A\00", align 1
@.str.4 = private unnamed_addr constant [40 x i8] c"  -h / --help             This message\0A\00", align 1
@.str.5 = private unnamed_addr constant [50 x i8] c"  -e / --exec             Treat filename as code\0A\00", align 1
@.str.6 = private unnamed_addr constant [73 x i8] c"  -o / --output-file <file> Write to the output file rather than stdout\0A\00", align 1
@.str.7 = private unnamed_addr constant [64 x i8] c"  -i / --in-place         Update the Jsonnet file(s) in place.\0A\00", align 1
@.str.8 = private unnamed_addr constant [82 x i8] c"  --test                  Exit with failure if reformatting changed the file(s).\0A\00", align 1
@.str.9 = private unnamed_addr constant [88 x i8] c"  -n / --indent <n>       Number of spaces to indent by (default 2, 0 means no change)\0A\00", align 1
@.str.10 = private unnamed_addr constant [79 x i8] c"  --max-blank-lines <n>   Max vertical spacing, 0 means no change (default 2)\0A\00", align 1
@.str.11 = private unnamed_addr constant [78 x i8] c"  --string-style <d|s|l>  Enforce double, single (default) quotes or 'leave'\0A\00", align 1
@.str.12 = private unnamed_addr constant [86 x i8] c"  --comment-style <h|s|l> # (h), // (s)(default), or 'leave'; never changes she-bang\0A\00", align 1
@.str.13 = private unnamed_addr constant [86 x i8] c"  --[no-]pretty-field-names Use syntax sugar for fields and indexing (on by default)\0A\00", align 1
@.str.14 = private unnamed_addr constant [60 x i8] c"  --[no-]pad-arrays       [ 1, 2, 3 ] instead of [1, 2, 3]\0A\00", align 1
@.str.15 = private unnamed_addr constant [82 x i8] c"  --[no-]pad-objects      { x: 1, y: 2 } instead of {x: 1, y: 2} (on by default)\0A\00", align 1
@.str.16 = private unnamed_addr constant [62 x i8] c"  --[no-]sort-imports     Sorting of imports (on by default)\0A\00", align 1
@.str.17 = private unnamed_addr constant [74 x i8] c"  --debug-desugaring      Unparse the desugared AST without executing it\0A\00", align 1
@.str.18 = private unnamed_addr constant [41 x i8] c"  --version               Print version\0A\00", align 1
@.str.19 = private unnamed_addr constant [15 x i8] c"In all cases:\0A\00", align 1
@.str.20 = private unnamed_addr constant [29 x i8] c"<filename> can be - (stdin)\0A\00", align 1
@.str.21 = private unnamed_addr constant [60 x i8] c"Multichar options are expanded e.g. -abc becomes -a -b -c.\0A\00", align 1
@.str.22 = private unnamed_addr constant [70 x i8] c"The -- option suppresses option processing for subsequent arguments.\0A\00", align 1
@.str.23 = private unnamed_addr constant [83 x i8] c"Note that since filenames and jsonnet programs can begin with -, it is advised to\0A\00", align 1
@.str.24 = private unnamed_addr constant [64 x i8] c"use -- if the argument is unknown, e.g. jsonnet -- \22$FILENAME\22.\00", align 1

; Function Attrs: mustprogress uwtable
define dso_local void @_Z7versionRSo(ptr noundef nonnull align 8 dereferenceable(8) %0) #4 {
  %2 = alloca ptr, align 8
  store ptr %0, ptr %2, align 8
  %3 = load ptr, ptr %2, align 8
  %4 = call noundef nonnull align 8 dereferenceable(8) ptr @_ZStlsISt11char_traitsIcEERSt13basic_ostreamIcT_ES5_PKc(ptr noundef nonnull align 8 dereferenceable(8) %3, ptr noundef @.str)
  %5 = call ptr @jsonnet_version()
  %6 = call noundef nonnull align 8 dereferenceable(8) ptr @_ZStlsISt11char_traitsIcEERSt13basic_ostreamIcT_ES5_PKc(ptr noundef nonnull align 8 dereferenceable(8) %4, ptr noundef %5)
  %7 = call noundef nonnull align 8 dereferenceable(8) ptr @_ZNSolsEPFRSoS_E(ptr noundef nonnull align 8 dereferenceable(8) %6, ptr noundef @_ZSt4endlIcSt11char_traitsIcEERSt13basic_ostreamIT_T0_ES6_)
  ret void
}

; Function Attrs: mustprogress uwtable
define dso_local void @_Z5usageRSo(ptr noundef nonnull align 8 dereferenceable(8) %0) #4 {
  %2 = alloca ptr, align 8
  store ptr %0, ptr %2, align 8
  %3 = load ptr, ptr %2, align 8
  call void @_Z7versionRSo(ptr noundef nonnull align 8 dereferenceable(8) %3)
  %4 = load ptr, ptr %2, align 8
  %5 = call noundef nonnull align 8 dereferenceable(8) ptr @_ZStlsISt11char_traitsIcEERSt13basic_ostreamIcT_ES5_PKc(ptr noundef nonnull align 8 dereferenceable(8) %4, ptr noundef @.str.1)
  %6 = load ptr, ptr %2, align 8
  %7 = call noundef nonnull align 8 dereferenceable(8) ptr @_ZStlsISt11char_traitsIcEERSt13basic_ostreamIcT_ES5_PKc(ptr noundef nonnull align 8 dereferenceable(8) %6, ptr noundef @.str.2)
  %8 = load ptr, ptr %2, align 8
  %9 = call noundef nonnull align 8 dereferenceable(8) ptr @_ZStlsISt11char_traitsIcEERSt13basic_ostreamIcT_ES5_PKc(ptr noundef nonnull align 8 dereferenceable(8) %8, ptr noundef @.str.1)
  %10 = load ptr, ptr %2, align 8
  %11 = call noundef nonnull align 8 dereferenceable(8) ptr @_ZStlsISt11char_traitsIcEERSt13basic_ostreamIcT_ES5_PKc(ptr noundef nonnull align 8 dereferenceable(8) %10, ptr noundef @.str.3)
  %12 = load ptr, ptr %2, align 8
  %13 = call noundef nonnull align 8 dereferenceable(8) ptr @_ZStlsISt11char_traitsIcEERSt13basic_ostreamIcT_ES5_PKc(ptr noundef nonnull align 8 dereferenceable(8) %12, ptr noundef @.str.4)
  %14 = load ptr, ptr %2, align 8
  %15 = call noundef nonnull align 8 dereferenceable(8) ptr @_ZStlsISt11char_traitsIcEERSt13basic_ostreamIcT_ES5_PKc(ptr noundef nonnull align 8 dereferenceable(8) %14, ptr noundef @.str.5)
  %16 = load ptr, ptr %2, align 8
  %17 = call noundef nonnull align 8 dereferenceable(8) ptr @_ZStlsISt11char_traitsIcEERSt13basic_ostreamIcT_ES5_PKc(ptr noundef nonnull align 8 dereferenceable(8) %16, ptr noundef @.str.6)
  %18 = load ptr, ptr %2, align 8
  %19 = call noundef nonnull align 8 dereferenceable(8) ptr @_ZStlsISt11char_traitsIcEERSt13basic_ostreamIcT_ES5_PKc(ptr noundef nonnull align 8 dereferenceable(8) %18, ptr noundef @.str.7)
  %20 = load ptr, ptr %2, align 8
  %21 = call noundef nonnull align 8 dereferenceable(8) ptr @_ZStlsISt11char_traitsIcEERSt13basic_ostreamIcT_ES5_PKc(ptr noundef nonnull align 8 dereferenceable(8) %20, ptr noundef @.str.8)
  %22 = load ptr, ptr %2, align 8
  %23 = call noundef nonnull align 8 dereferenceable(8) ptr @_ZStlsISt11char_traitsIcEERSt13basic_ostreamIcT_ES5_PKc(ptr noundef nonnull align 8 dereferenceable(8) %22, ptr noundef @.str.9)
  %24 = load ptr, ptr %2, align 8
  %25 = call noundef nonnull align 8 dereferenceable(8) ptr @_ZStlsISt11char_traitsIcEERSt13basic_ostreamIcT_ES5_PKc(ptr noundef nonnull align 8 dereferenceable(8) %24, ptr noundef @.str.10)
  %26 = load ptr, ptr %2, align 8
  %27 = call noundef nonnull align 8 dereferenceable(8) ptr @_ZStlsISt11char_traitsIcEERSt13basic_ostreamIcT_ES5_PKc(ptr noundef nonnull align 8 dereferenceable(8) %26, ptr noundef @.str.11)
  %28 = load ptr, ptr %2, align 8
  %29 = call noundef nonnull align 8 dereferenceable(8) ptr @_ZStlsISt11char_traitsIcEERSt13basic_ostreamIcT_ES5_PKc(ptr noundef nonnull align 8 dereferenceable(8) %28, ptr noundef @.str.12)
  %30 = load ptr, ptr %2, align 8
  %31 = call noundef nonnull align 8 dereferenceable(8) ptr @_ZStlsISt11char_traitsIcEERSt13basic_ostreamIcT_ES5_PKc(ptr noundef nonnull align 8 dereferenceable(8) %30, ptr noundef @.str.13)
  %32 = load ptr, ptr %2, align 8
  %33 = call noundef nonnull align 8 dereferenceable(8) ptr @_ZStlsISt11char_traitsIcEERSt13basic_ostreamIcT_ES5_PKc(ptr noundef nonnull align 8 dereferenceable(8) %32, ptr noundef @.str.14)
  %34 = load ptr, ptr %2, align 8
  %35 = call noundef nonnull align 8 dereferenceable(8) ptr @_ZStlsISt11char_traitsIcEERSt13basic_ostreamIcT_ES5_PKc(ptr noundef nonnull align 8 dereferenceable(8) %34, ptr noundef @.str.15)
  %36 = load ptr, ptr %2, align 8
  %37 = call noundef nonnull align 8 dereferenceable(8) ptr @_ZStlsISt11char_traitsIcEERSt13basic_ostreamIcT_ES5_PKc(ptr noundef nonnull align 8 dereferenceable(8) %36, ptr noundef @.str.16)
  %38 = load ptr, ptr %2, align 8
  %39 = call noundef nonnull align 8 dereferenceable(8) ptr @_ZStlsISt11char_traitsIcEERSt13basic_ostreamIcT_ES5_PKc(ptr noundef nonnull align 8 dereferenceable(8) %38, ptr noundef @.str.17)
  %40 = load ptr, ptr %2, align 8
  %41 = call noundef nonnull align 8 dereferenceable(8) ptr @_ZStlsISt11char_traitsIcEERSt13basic_ostreamIcT_ES5_PKc(ptr noundef nonnull align 8 dereferenceable(8) %40, ptr noundef @.str.18)
  %42 = load ptr, ptr %2, align 8
  %43 = call noundef nonnull align 8 dereferenceable(8) ptr @_ZStlsISt11char_traitsIcEERSt13basic_ostreamIcT_ES5_PKc(ptr noundef nonnull align 8 dereferenceable(8) %42, ptr noundef @.str.1)
  %44 = load ptr, ptr %2, align 8
  %45 = call noundef nonnull align 8 dereferenceable(8) ptr @_ZStlsISt11char_traitsIcEERSt13basic_ostreamIcT_ES5_PKc(ptr noundef nonnull align 8 dereferenceable(8) %44, ptr noundef @.str.19)
  %46 = load ptr, ptr %2, align 8
  %47 = call noundef nonnull align 8 dereferenceable(8) ptr @_ZStlsISt11char_traitsIcEERSt13basic_ostreamIcT_ES5_PKc(ptr noundef nonnull align 8 dereferenceable(8) %46, ptr noundef @.str.20)
  %48 = load ptr, ptr %2, align 8
  %49 = call noundef nonnull align 8 dereferenceable(8) ptr @_ZStlsISt11char_traitsIcEERSt13basic_ostreamIcT_ES5_PKc(ptr noundef nonnull align 8 dereferenceable(8) %48, ptr noundef @.str.21)
  %50 = load ptr, ptr %2, align 8
  %51 = call noundef nonnull align 8 dereferenceable(8) ptr @_ZStlsISt11char_traitsIcEERSt13basic_ostreamIcT_ES5_PKc(ptr noundef nonnull align 8 dereferenceable(8) %50, ptr noundef @.str.22)
  %52 = load ptr, ptr %2, align 8
  %53 = call noundef nonnull align 8 dereferenceable(8) ptr @_ZStlsISt11char_traitsIcEERSt13basic_ostreamIcT_ES5_PKc(ptr noundef nonnull align 8 dereferenceable(8) %52, ptr noundef @.str.23)
  %54 = load ptr, ptr %2, align 8
  %55 = call noundef nonnull align 8 dereferenceable(8) ptr @_ZStlsISt11char_traitsIcEERSt13basic_ostreamIcT_ES5_PKc(ptr noundef nonnull align 8 dereferenceable(8) %54, ptr noundef @.str.24)
  %56 = load ptr, ptr %2, align 8
  %57 = call noundef nonnull align 8 dereferenceable(8) ptr @_ZNSolsEPFRSoS_E(ptr noundef nonnull align 8 dereferenceable(8) %56, ptr noundef @_ZSt4endlIcSt11char_traitsIcEERSt13basic_ostreamIT_T0_ES6_)
  ret void
}